; Function Attrs: mustprogress uwtable
define void @_ZN4YAML19GraphBuilderAdapter15DispositionNodeEPv(ptr noundef nonnull align 8 captures(none) dereferenceable(136) %0, ptr noundef %1) local_unnamed_addr #0 align 2 {
  %3 = getelementptr inbounds nuw i8, ptr %0, i64 64
  %4 = getelementptr inbounds nuw i8, ptr %0, i64 32
  %5 = load ptr, ptr %3, align 8, !tbaa !3
  %6 = load ptr, ptr %4, align 8, !tbaa !3
  %7 = icmp eq ptr %5, %6
  br i1 %7, label %8, label %10

8:                                                ; preds = %2
  %9 = getelementptr inbounds nuw i8, ptr %0, i64 120
  store ptr %1, ptr %9, align 8, !tbaa !39
  br label %42

10:                                               ; preds = %2
  %11 = getelementptr inbounds nuw i8, ptr %0, i64 72
  %12 = load ptr, ptr %11, align 8, !tbaa !11, !noalias !48
  %13 = icmp eq ptr %5, %12
  br i1 %13, label %15, label %_ZNSt5stackIN4YAML19GraphBuilderAdapter14ContainerFrameESt5dequeIS2_SaIS2_EEE3topEv.exit

_ZNSt5stackIN4YAML19GraphBuilderAdapter14ContainerFrameESt5dequeIS2_SaIS2_EEE3topEv.exit: ; preds = %10
  %14 = getelementptr inbounds i8, ptr %5, i64 -16
  br label %_ZNSt5stackIN4YAML19GraphBuilderAdapter14ContainerFrameESt5dequeIS2_SaIS2_EEE3topEv.exit7

15:                                               ; preds = %10
  %16 = getelementptr inbounds nuw i8, ptr %0, i64 88
  %17 = load ptr, ptr %16, align 8, !tbaa !15, !noalias !48
  %18 = getelementptr inbounds i8, ptr %17, i64 -8
  %19 = load ptr, ptr %18, align 8, !tbaa !16
  %20 = getelementptr inbounds nuw i8, ptr %19, i64 496
  %21 = getelementptr inbounds nuw i8, ptr %19, i64 512
  br label %_ZNSt5stackIN4YAML19GraphBuilderAdapter14ContainerFrameESt5dequeIS2_SaIS2_EEE3topEv.exit7

_ZNSt5stackIN4YAML19GraphBuilderAdapter14ContainerFrameESt5dequeIS2_SaIS2_EEE3topEv.exit7: ; preds = %_ZNSt5stackIN4YAML19GraphBuilderAdapter14ContainerFrameESt5dequeIS2_SaIS2_EEE3topEv.exit, %15
  %.in = phi ptr [ %20, %15 ], [ %14, %_ZNSt5stackIN4YAML19GraphBuilderAdapter14ContainerFrameESt5dequeIS2_SaIS2_EEE3topEv.exit ]
  %22 = phi ptr [ %21, %15 ], [ %5, %_ZNSt5stackIN4YAML19GraphBuilderAdapter14ContainerFrameESt5dequeIS2_SaIS2_EEE3topEv.exit ]
  %23 = load ptr, ptr %.in, align 8, !tbaa !17
  %24 = getelementptr inbounds i8, ptr %22, i64 -8
  %25 = load ptr, ptr %24, align 8, !tbaa !43
  %.not8 = icmp eq ptr %25, @_ZN4YAML19GraphBuilderAdapter14ContainerFrame14sequenceMarkerE
  br i1 %.not8, label %36, label %26

26:                                               ; preds = %_ZNSt5stackIN4YAML19GraphBuilderAdapter14ContainerFrameESt5dequeIS2_SaIS2_EEE3topEv.exit7
  %27 = getelementptr inbounds nuw i8, ptr %0, i64 128
  %28 = load ptr, ptr %27, align 8, !tbaa !44
  %.not = icmp eq ptr %28, null
  br i1 %.not, label %35, label %29

29:                                               ; preds = %26
  %30 = getelementptr inbounds nuw i8, ptr %0, i64 8
  %31 = load ptr, ptr %30, align 8, !tbaa !19
  %32 = load ptr, ptr %31, align 8, !tbaa !34
  %33 = getelementptr inbounds nuw i8, ptr %32, i64 64
  %34 = load ptr, ptr %33, align 8
  tail call void %34(ptr noundef nonnull align 8 dereferenceable(8) %31, ptr noundef %23, ptr noundef nonnull %28, ptr noundef %1)
  store ptr null, ptr %27, align 8, !tbaa !44
  br label %42

35:                                               ; preds = %26
  store ptr %1, ptr %27, align 8, !tbaa !44
  br label %42

36:                                               ; preds = %_ZNSt5stackIN4YAML19GraphBuilderAdapter14ContainerFrameESt5dequeIS2_SaIS2_EEE3topEv.exit7
  %37 = getelementptr inbounds nuw i8, ptr %0, i64 8
  %38 = load ptr, ptr %37, align 8, !tbaa !19
  %39 = load ptr, ptr %38, align 8, !tbaa !34
  %40 = getelementptr inbounds nuw i8, ptr %39, i64 40
  %41 = load ptr, ptr %40, align 8
  tail call void %41(ptr noundef nonnull align 8 dereferenceable(8) %38, ptr noundef %23, ptr noundef %1)
  br label %42

42:                                               ; preds = %36, %35, %29, %8
  ret void
}